; ModuleID = 'bench/openspiel/original/init.cc.ll'
source_filename = "bench/openspiel/original/init.cc.ll"
target datalayout = "e-m:e-p270:32:32-p271:32:32-p272:64:64-i64:64-i128:128-f80:128-n8:16:32:64-S128"
target triple = "x86_64-pc-linux-gnu"

; Function Attrs: mustprogress nofree norecurse nosync nounwind willreturn memory(none) uwtable
define void @_ZN10open_spiel4InitEPKcPiPPPcb(ptr nocapture noundef readnone %0, ptr nocapture noundef readnone %1, ptr nocapture noundef readnone %2, i1 noundef zeroext %3) local_unnamed_addr #0 {
  ret void
}


!llvm.module.flags = !{!0, !1, !2, !3}

!0 = !{i32 1, !"wchar_size", i32 4}
!1 = !{i32 8, !"PIC Level", i32 2}
!2 = !{i32 7, !"uwtable", i32 2}
!3 = !{i32 7, !"frame-pointer", i32 2}
